target datalayout = "e-m:e-p270:32:32-p271:32:32-p272:64:64-i64:64-i128:128-f80:128-n8:16:32:64-S128"
target triple = "x86_64-pc-linux-gnu"

%struct.string_list_item = type { ptr, ptr }

@the_repository = external global ptr, align 8
@.str.44 = private unnamed_addr constant [9 x i8] c"\0Aauthor \00", align 1
@.str.45 = private unnamed_addr constant [12 x i8] c"\0Acommitter \00", align 1
@sane_ctype = external constant [256 x i8], align 16

; Function Attrs: nounwind uwtable
define internal void @record_person_from_buf(i32 noundef %0, ptr noundef %1, ptr noundef %2) #0 {
  %4 = alloca i32, align 4
  %5 = alloca ptr, align 8
  %6 = alloca ptr, align 8
  %7 = alloca ptr, align 8
  %8 = alloca ptr, align 8
  %9 = alloca ptr, align 8
  %10 = alloca ptr, align 8
  %11 = alloca ptr, align 8
  %12 = alloca i32, align 4
  store i32 %0, ptr %4, align 4, !tbaa !15
  store ptr %1, ptr %5, align 8, !tbaa !160
  store ptr %2, ptr %6, align 8, !tbaa !4
  call void @llvm.lifetime.start.p0(i64 8, ptr %7) #10
  call void @llvm.lifetime.start.p0(i64 8, ptr %8) #10
  call void @llvm.lifetime.start.p0(i64 8, ptr %9) #10
  call void @llvm.lifetime.start.p0(i64 8, ptr %10) #10
  call void @llvm.lifetime.start.p0(i64 8, ptr %11) #10
  %13 = load i32, ptr %4, align 4, !tbaa !15
  %14 = icmp eq i32 %13, 97
  %15 = select i1 %14, ptr @.str.44, ptr @.str.45
  store ptr %15, ptr %11, align 8, !tbaa !4
  %16 = load ptr, ptr %6, align 8, !tbaa !4
  %17 = load ptr, ptr %11, align 8, !tbaa !4
  %18 = call ptr @strstr(ptr noundef %16, ptr noundef %17) #9
  store ptr %18, ptr %8, align 8, !tbaa !4
  %19 = load ptr, ptr %8, align 8, !tbaa !4
  %20 = icmp ne ptr %19, null
  br i1 %20, label %22, label %21

21:                                               ; preds = %3
  store i32 1, ptr %12, align 4
  br label %89

22:                                               ; preds = %3
  %23 = load ptr, ptr %11, align 8, !tbaa !4
  %24 = call i64 @strlen(ptr noundef %23) #9
  %25 = load ptr, ptr %8, align 8, !tbaa !4
  %26 = getelementptr inbounds nuw i8, ptr %25, i64 %24
  store ptr %26, ptr %8, align 8, !tbaa !4
  %27 = load ptr, ptr %8, align 8, !tbaa !4
  %28 = call ptr @strchrnul(ptr noundef %27, i32 noundef 60) #9
  store ptr %28, ptr %9, align 8, !tbaa !4
  %29 = load ptr, ptr %9, align 8, !tbaa !4
  %30 = load i8, ptr %29, align 1, !tbaa !17
  %31 = icmp ne i8 %30, 0
  br i1 %31, label %32, label %35

32:                                               ; preds = %22
  %33 = load ptr, ptr %9, align 8, !tbaa !4
  %34 = getelementptr inbounds i8, ptr %33, i32 -1
  store ptr %34, ptr %9, align 8, !tbaa !4
  br label %35

35:                                               ; preds = %32, %22
  br label %36

36:                                               ; preds = %51, %35
  %37 = load ptr, ptr %9, align 8, !tbaa !4
  %38 = load i8, ptr %37, align 1, !tbaa !17
  %39 = zext i8 %38 to i64
  %40 = getelementptr inbounds nuw [256 x i8], ptr @sane_ctype, i64 0, i64 %39
  %41 = load i8, ptr %40, align 1, !tbaa !17
  %42 = zext i8 %41 to i32
  %43 = and i32 %42, 1
  %44 = icmp ne i32 %43, 0
  br i1 %44, label %45, label %49

45:                                               ; preds = %36
  %46 = load ptr, ptr %8, align 8, !tbaa !4
  %47 = load ptr, ptr %9, align 8, !tbaa !4
  %48 = icmp ule ptr %46, %47
  br label %49

49:                                               ; preds = %45, %36
  %50 = phi i1 [ false, %36 ], [ %48, %45 ]
  br i1 %50, label %51, label %54

51:                                               ; preds = %49
  %52 = load ptr, ptr %9, align 8, !tbaa !4
  %53 = getelementptr inbounds i8, ptr %52, i32 -1
  store ptr %53, ptr %9, align 8, !tbaa !4
  br label %36, !llvm.loop !165

54:                                               ; preds = %49
  %55 = load ptr, ptr %9, align 8, !tbaa !4
  %56 = load ptr, ptr %8, align 8, !tbaa !4
  %57 = icmp ult ptr %55, %56
  br i1 %57, label %58, label %59

58:                                               ; preds = %54
  store i32 1, ptr %12, align 4
  br label %89

59:                                               ; preds = %54
  %60 = load ptr, ptr %8, align 8, !tbaa !4
  %61 = load ptr, ptr %9, align 8, !tbaa !4
  %62 = load ptr, ptr %8, align 8, !tbaa !4
  %63 = ptrtoint ptr %61 to i64
  %64 = ptrtoint ptr %62 to i64
  %65 = sub i64 %63, %64
  %66 = add nsw i64 %65, 1
  %67 = call ptr @xmemdupz(ptr noundef %60, i64 noundef %66)
  store ptr %67, ptr %7, align 8, !tbaa !4
  %68 = load ptr, ptr %5, align 8, !tbaa !160
  %69 = load ptr, ptr %7, align 8, !tbaa !4
  %70 = call ptr @string_list_lookup(ptr noundef %68, ptr noundef %69)
  store ptr %70, ptr %10, align 8, !tbaa !127
  %71 = load ptr, ptr %10, align 8, !tbaa !127
  %72 = icmp ne ptr %71, null
  br i1 %72, label %79, label %73

73:                                               ; preds = %59
  %74 = load ptr, ptr %5, align 8, !tbaa !160
  %75 = load ptr, ptr %7, align 8, !tbaa !4
  %76 = call ptr @string_list_insert(ptr noundef %74, ptr noundef %75)
  store ptr %76, ptr %10, align 8, !tbaa !127
  %77 = load ptr, ptr %10, align 8, !tbaa !127
  %78 = getelementptr inbounds nuw %struct.string_list_item, ptr %77, i32 0, i32 1
  store ptr null, ptr %78, align 8, !tbaa !85
  br label %79

79:                                               ; preds = %73, %59
  %80 = load ptr, ptr %10, align 8, !tbaa !127
  %81 = getelementptr inbounds nuw %struct.string_list_item, ptr %80, i32 0, i32 1
  %82 = load ptr, ptr %81, align 8, !tbaa !85
  %83 = ptrtoint ptr %82 to i64
  %84 = add nsw i64 %83, 1
  %85 = inttoptr i64 %84 to ptr
  %86 = load ptr, ptr %10, align 8, !tbaa !127
  %87 = getelementptr inbounds nuw %struct.string_list_item, ptr %86, i32 0, i32 1
  store ptr %85, ptr %87, align 8, !tbaa !85
  %88 = load ptr, ptr %7, align 8, !tbaa !4
  call void @free(ptr noundef %88) #10
  store i32 0, ptr %12, align 4
  br label %89

89:                                               ; preds = %79, %58, %21
  call void @llvm.lifetime.end.p0(i64 8, ptr %11) #10
  call void @llvm.lifetime.end.p0(i64 8, ptr %10) #10
  call void @llvm.lifetime.end.p0(i64 8, ptr %9) #10
  call void @llvm.lifetime.end.p0(i64 8, ptr %8) #10
  call void @llvm.lifetime.end.p0(i64 8, ptr %7) #10
  %90 = load i32, ptr %12, align 4
  switch i32 %90, label %92 [
    i32 0, label %91
    i32 1, label %91
  ]

91:                                               ; preds = %89, %89
  ret void

92:                                               ; preds = %89
  unreachable
}

; Function Attrs: nounwind uwtable
define internal void @record_person(i32 noundef %0, ptr noundef %1, ptr noundef %2) #0 {
  %4 = alloca i32, align 4
  %5 = alloca ptr, align 8
  %6 = alloca ptr, align 8
  %7 = alloca ptr, align 8
  store i32 %0, ptr %4, align 4, !tbaa !15
  store ptr %1, ptr %5, align 8, !tbaa !160
  store ptr %2, ptr %6, align 8, !tbaa !36
  call void @llvm.lifetime.start.p0(i64 8, ptr %7) #10
  %8 = load ptr, ptr @the_repository, align 8, !tbaa !22
  %9 = load ptr, ptr %6, align 8, !tbaa !36
  %10 = call ptr @repo_get_commit_buffer(ptr noundef %8, ptr noundef %9, ptr noundef null)
  store ptr %10, ptr %7, align 8, !tbaa !4
  %11 = load i32, ptr %4, align 4, !tbaa !15
  %12 = load ptr, ptr %5, align 8, !tbaa !160
  %13 = load ptr, ptr %7, align 8, !tbaa !4
  call void @record_person_from_buf(i32 noundef %11, ptr noundef %12, ptr noundef %13)
  %14 = load ptr, ptr @the_repository, align 8, !tbaa !22
  %15 = load ptr, ptr %6, align 8, !tbaa !36
  %16 = load ptr, ptr %7, align 8, !tbaa !4
  call void @repo_unuse_commit_buffer(ptr noundef %14, ptr noundef %15, ptr noundef %16)
  call void @llvm.lifetime.end.p0(i64 8, ptr %7) #10
  ret void
}