; Function Attrs: nounwind uwtable
define internal fastcc void @record_person(i32 noundef range(i32 97, 100) %0, ptr noundef nonnull %1, ptr noundef nonnull %2) unnamed_addr #0 {
  %4 = load ptr, ptr @the_repository, align 8, !tbaa !13
  %5 = tail call ptr @repo_get_commit_buffer(ptr noundef %4, ptr noundef nonnull %2, ptr noundef null) #13
  %6 = icmp eq i32 %0, 97
  %7 = select i1 %6, ptr @.str.44, ptr @.str.45
  %8 = tail call ptr @strstr(ptr noundef nonnull dereferenceable(1) %5, ptr noundef nonnull dereferenceable(1) %7) #12
  %.not.i = icmp eq ptr %8, null
  br i1 %.not.i, label %record_person_from_buf.exit, label %9

9:                                                ; preds = %3
  %10 = select i1 %6, i64 8, i64 11
  %11 = getelementptr inbounds nuw i8, ptr %8, i64 %10
  %12 = tail call ptr @strchrnul(ptr noundef nonnull %11, i32 noundef 60) #12
  %13 = load i8, ptr %12, align 1, !tbaa !12
  %.not30.i = icmp ne i8 %13, 0
  %spec.select.idx.i = sext i1 %.not30.i to i64
  %spec.select.i = getelementptr inbounds i8, ptr %12, i64 %spec.select.idx.i
  br label %14

14:                                               ; preds = %14, %9
  %.1.i = phi ptr [ %spec.select.i, %9 ], [ %23, %14 ]
  %15 = load i8, ptr %.1.i, align 1, !tbaa !12
  %16 = zext i8 %15 to i64
  %17 = getelementptr inbounds nuw [256 x i8], ptr @sane_ctype, i64 0, i64 %16
  %18 = load i8, ptr %17, align 1, !tbaa !12
  %19 = and i8 %18, 1
  %20 = icmp ne i8 %19, 0
  %21 = icmp ule ptr %11, %.1.i
  %22 = and i1 %21, %20
  %23 = getelementptr inbounds i8, ptr %.1.i, i64 -1
  br i1 %22, label %14, label %24, !llvm.loop !136

24:                                               ; preds = %14
  %25 = icmp ult ptr %.1.i, %11
  br i1 %25, label %record_person_from_buf.exit, label %26

26:                                               ; preds = %24
  %27 = ptrtoint ptr %.1.i to i64
  %28 = ptrtoint ptr %11 to i64
  %reass.sub = sub i64 %27, %28
  %29 = add i64 %reass.sub, 1
  %30 = tail call ptr @xmemdupz(ptr noundef nonnull %11, i64 noundef %29) #13
  %31 = tail call ptr @string_list_lookup(ptr noundef nonnull %1, ptr noundef %30) #13
  %.not31.i = icmp eq ptr %31, null
  br i1 %.not31.i, label %34, label %._crit_edge.i

._crit_edge.i:                                    ; preds = %26
  %.phi.trans.insert.i = getelementptr inbounds nuw i8, ptr %31, i64 8
  %.pre.i = load ptr, ptr %.phi.trans.insert.i, align 8, !tbaa !57
  %32 = ptrtoint ptr %.pre.i to i64
  %33 = add nsw i64 %32, 1
  br label %37

34:                                               ; preds = %26
  %35 = tail call ptr @string_list_insert(ptr noundef nonnull %1, ptr noundef %30) #13
  %36 = getelementptr inbounds nuw i8, ptr %35, i64 8
  store ptr null, ptr %36, align 8, !tbaa !57
  br label %37

37:                                               ; preds = %34, %._crit_edge.i
  %38 = phi i64 [ %33, %._crit_edge.i ], [ 1, %34 ]
  %.0.i = phi ptr [ %31, %._crit_edge.i ], [ %35, %34 ]
  %39 = getelementptr inbounds nuw i8, ptr %.0.i, i64 8
  %40 = inttoptr i64 %38 to ptr
  store ptr %40, ptr %39, align 8, !tbaa !57
  tail call void @free(ptr noundef %30) #13
  br label %record_person_from_buf.exit

record_person_from_buf.exit:                      ; preds = %3, %24, %37
  %41 = load ptr, ptr @the_repository, align 8, !tbaa !13
  tail call void @repo_unuse_commit_buffer(ptr noundef %41, ptr noundef nonnull %2, ptr noundef nonnull %5) #13
  ret void
}